OCSP Response Data:
    OCSP Response Status: successful (0x0)
    Response Type: Basic OCSP Response
    Version: 1 (0x0)
    Responder Id: C = US, ST = California, L = San Francisco, O = Lyft, OU = Lyft Engineering, CN = ca
    Produced At: Nov 10 13:51:01 2022 GMT
    Responses:
    Certificate ID:
      Hash Algorithm: sha1
      Issuer Name Hash: 16C50680A809B68F302789AB234F8F4B30B0E06C
      Issuer Key Hash: BE79B4913F87EAD1968CB2FB2777B0AE1BCBFA19
      Serial Number: 1000
    Cert Status: good
    This Update: Nov 10 13:51:01 2022 GMT
    Next Update: Nov  9 13:51:01 2024 GMT

    Response Extensions:
        OCSP Nonce:
            04109A4757620F8AA687F00F4E1B55352E39
    Signature Algorithm: sha256WithRSAEncryption
         c7:44:89:9d:86:bb:58:53:ef:27:75:4e:ae:cd:54:17:2c:54:
         95:e5:18:ee:72:47:92:72:b0:e1:78:16:e2:85:a6:f6:6b:0f:
         02:4e:4c:ef:df:b5:75:16:8a:d1:47:81:cf:aa:87:39:4e:f9:
         05:f6:51:6a:9c:4c:08:f6:72:c8:73:c5:7a:e1:18:da:b9:46:
         57:56:fc:ca:68:88:b4:f0:17:cf:35:16:49:4d:a8:bd:e6:13:
         0e:0e:09:89:cd:d7:47:be:a5:ec:62:01:63:1f:ce:1d:49:5b:
         da:b9:d9:41:f6:f4:dc:3c:d0:5e:39:6c:81:18:6b:3d:d9:da:
         8a:bb:89:87:40:d5:79:fc:46:91:f9:13:21:4b:08:f1:cf:57:
         e3:7b:74:11:62:4c:1e:4e:ef:ec:f8:02:b1:5e:13:7e:ba:36:
         f5:8d:0b:97:3c:09:1d:b9:c7:66:6d:f0:e6:c1:a3:da:d3:cd:
         f5:28:a7:fc:74:35:af:c0:e1:c3:ea:fd:39:d1:9b:a3:f7:e5:
         5b:00:b3:a0:13:8c:b7:19:a0:aa:85:b4:3e:26:07:3f:fb:20:
         fb:c3:d8:76:08:e8:14:0c:03:52:a9:32:54:c6:59:97:8c:3f:
         1e:1c:be:b7:cb:a3:ba:4b:19:93:8a:8c:67:9d:d5:39:cb:b2:
         6f:d5:2f:c7
Certificate:
    Data:
        Version: 3 (0x2)
        Serial Number:
            12:80:9d:59:b0:f2:18:32:98:df:2c:48:77:c7:53:7b:93:70:37:34
        Signature Algorithm: sha256WithRSAEncryption
        Issuer: C=US, ST=California, L=San Francisco, O=Lyft, OU=Lyft Engineering, CN=ca
        Validity
            Not Before: Nov 10 13:51:00 2022 GMT
            Not After : Nov  9 13:51:00 2024 GMT
        Subject: C=US, ST=California, L=San Francisco, O=Lyft, OU=Lyft Engineering, CN=ca
        Subject Public Key Info:
            Public Key Algorithm: rsaEncryption
                RSA Public-Key: (2048 bit)
                Modulus:
                    00:e8:5e:db:da:9a:9f:d6:16:05:42:b2:30:47:01:
                    58:dd:36:36:98:e7:15:b3:84:d8:64:35:78:a6:21:
                    79:d7:1c:10:42:8a:05:d0:67:1d:8e:55:2e:aa:50:
                    35:2a:fc:3e:a2:04:4f:e2:5b:23:1e:cf:aa:1f:d8:
                    55:c5:52:01:c2:5d:c6:70:1c:65:fc:e6:67:af:0c:
                    c3:9f:b4:34:e6:b2:5c:7b:d4:54:9c:a2:d3:3b:46:
                    72:7a:91:d8:55:15:6f:c8:be:1f:7d:1c:3d:32:a5:
                    85:e5:fa:40:8a:c2:d5:26:1e:b1:9d:43:32:20:c0:
                    3d:55:3a:2e:77:a4:cd:3e:55:a5:26:64:60:0a:84:
                    40:ac:3f:fd:0a:3c:83:4c:11:c0:b3:d6:1e:d2:58:
                    ff:b3:e4:72:0b:91:fa:9e:e0:7b:ff:f8:7d:e1:84:
                    a5:4e:e6:50:fc:c0:e3:40:d6:ac:37:8d:63:7a:7a:
                    4b:89:42:c6:c2:ee:7e:67:e4:9c:79:53:7b:b0:7b:
                    94:51:66:07:a4:3b:9d:9a:18:d4:c9:88:45:e7:ae:
                    bf:18:0a:0b:81:76:9d:10:b6:2d:a0:bc:33:ec:2e:
                    46:bd:5c:34:12:70:f8:58:28:db:85:6c:4d:17:91:
                    a1:f2:14:7b:fc:82:9f:43:e5:ac:20:ff:06:e2:39:
                    15:05
                Exponent: 65537 (0x10001)
        X509v3 extensions:
            X509v3 Subject Key Identifier:
                BE:79:B4:91:3F:87:EA:D1:96:8C:B2:FB:27:77:B0:AE:1B:CB:FA:19
            X509v3 Authority Key Identifier:
                keyid:BE:79:B4:91:3F:87:EA:D1:96:8C:B2:FB:27:77:B0:AE:1B:CB:FA:19

            X509v3 Basic Constraints: critical
                CA:TRUE
            X509v3 Key Usage: critical
                Digital Signature, Certificate Sign, CRL Sign
    Signature Algorithm: sha256WithRSAEncryption
         7d:f7:fd:b8:36:c0:f0:88:b8:8d:8b:0a:b8:68:da:a0:bd:34:
         fb:d7:e2:10:37:7b:00:af:91:d1:fa:46:ef:c1:e0:68:83:ef:
         a2:62:8a:9b:dd:a9:05:e8:57:ae:52:15:4c:ff:33:73:b7:04:
         0f:62:fd:c6:38:5e:58:55:0f:50:87:2e:50:27:62:d7:11:1d:
         5b:58:50:5d:34:52:5a:0c:9f:32:00:9f:0a:ce:88:68:8a:f8:
         e6:ac:ca:6c:8b:59:10:38:01:cd:15:de:f3:4d:78:4a:ac:24:
         d6:58:e8:fa:cc:ea:a9:a6:eb:1c:d7:3a:c1:41:f2:f2:75:4f:
         28:db:06:56:ee:b8:c4:b7:e5:07:2a:28:58:48:2b:a8:23:9f:
         8a:7a:4d:d0:66:1c:b8:01:c4:ff:a5:e7:06:3c:31:3a:a8:c0:
         3d:ff:51:77:c8:5e:8b:37:c6:cc:c7:e9:59:f1:fe:ac:72:cf:
         e5:45:04:03:f6:f1:ef:e2:7b:89:81:a5:5e:b6:ee:d1:f3:2c:
         9f:1f:a1:a3:85:af:aa:27:20:d4:ec:c9:e7:55:be:79:25:92:
         dc:07:f5:66:a2:4d:c0:2e:ec:e9:2a:8a:d8:e3:ed:c0:f0:73:
         49:fb:e2:c8:3f:95:4b:9b:f9:1f:c2:87:54:4d:54:4a:92:1f:
         65:5c:d7:b7
-----BEGIN CERTIFICATE-----
MIID0zCCArugAwIBAgIUEoCdWbDyGDKY3yxId8dTe5NwNzQwDQYJKoZIhvcNAQEL
BQAwcTELMAkGA1UEBhMCVVMxEzARBgNVBAgMCkNhbGlmb3JuaWExFjAUBgNVBAcM
DVNhbiBGcmFuY2lzY28xDTALBgNVBAoMBEx5ZnQxGTAXBgNVBAsMEEx5ZnQgRW5n
aW5lZXJpbmcxCzAJBgNVBAMMAmNhMB4XDTIyMTExMDEzNTEwMFoXDTI0MTEwOTEz
NTEwMFowcTELMAkGA1UEBhMCVVMxEzARBgNVBAgMCkNhbGlmb3JuaWExFjAUBgNV
BAcMDVNhbiBGcmFuY2lzY28xDTALBgNVBAoMBEx5ZnQxGTAXBgNVBAsMEEx5ZnQg
RW5naW5lZXJpbmcxCzAJBgNVBAMMAmNhMIIBIjANBgkqhkiG9w0BAQEFAAOCAQ8A
MIIBCgKCAQEA6F7b2pqf1hYFQrIwRwFY3TY2mOcVs4TYZDV4piF51xwQQooF0Gcd
jlUuqlA1Kvw+ogRP4lsjHs+qH9hVxVIBwl3GcBxl/OZnrwzDn7Q05rJce9RUnKLT
O0ZyepHYVRVvyL4ffRw9MqWF5fpAisLVJh6xnUMyIMA9VToud6TNPlWlJmRgCoRA
rD/9CjyDTBHAs9Ye0lj/s+RyC5H6nuB7//h94YSlTuZQ/MDjQNasN41jenpLiULG
wu5+Z+SceVN7sHuUUWYHpDudmhjUyYhF566/GAoLgXadELYtoLwz7C5GvVw0EnD4
WCjbhWxNF5Gh8hR7/IKfQ+WsIP8G4jkVBQIDAQABo2MwYTAdBgNVHQ4EFgQUvnm0
kT+H6tGWjLL7J3ewrhvL+hkwHwYDVR0jBBgwFoAUvnm0kT+H6tGWjLL7J3ewrhvL
+hkwDwYDVR0TAQH/BAUwAwEB/zAOBgNVHQ8BAf8EBAMCAYYwDQYJKoZIhvcNAQEL
BQADggEBAH33/bg2wPCIuI2LCrho2qC9NPvX4hA3ewCvkdH6Ru/B4GiD76Jiipvd
qQXoV65SFUz/M3O3BA9i/cY4XlhVD1CHLlAnYtcRHVtYUF00UloMnzIAnwrOiGiK
+OasymyLWRA4Ac0V3vNNeEqsJNZY6PrM6qmm6xzXOsFB8vJ1TyjbBlbuuMS35Qcq
KFhIK6gjn4p6TdBmHLgBxP+l5wY8MTqowD3/UXfIXos3xszH6Vnx/qxyz+VFBAP2
8e/ie4mBpV627tHzLJ8foaOFr6onINTsyedVvnklktwH9WaiTcAu7Okqitjj7cDw
c0n74sg/lUub+R/Ch1RNVEqSH2Vc17c=
-----END CERTIFICATE-----
