OCSP Response Data:
    OCSP Response Status: successful (0x0)
    Response Type: Basic OCSP Response
    Version: 1 (0x0)
    Responder Id: C = US, ST = California, L = San Francisco, O = Lyft, OU = Lyft Engineering, CN = ca
    Produced At: Aug 28 17:05:24 2024 GMT
    Responses:
    Certificate ID:
      Hash Algorithm: sha1
      Issuer Name Hash: 16C50680A809B68F302789AB234F8F4B30B0E06C
      Issuer Key Hash: 2DACFBCD9672C363E465048C645037CA06535FFE
      Serial Number: 1000
    Cert Status: good
    This Update: Aug 28 17:05:24 2024 GMT
    Next Update: Aug 28 17:05:24 2026 GMT

    Response Extensions:
        OCSP Nonce: 
            04101B9F76846A4EB095B067A9EADE61D8B6
    Signature Algorithm: sha256WithRSAEncryption
         70:06:ae:14:04:74:57:e2:cf:9b:9d:cc:75:2a:46:aa:01:13:
         d7:fe:05:79:0e:3e:52:68:cc:8d:b3:c7:3b:3e:55:04:b3:f4:
         ce:98:8b:68:48:95:dc:2c:e1:b0:da:0c:35:57:c9:73:68:a3:
         96:da:17:cc:95:b5:9b:bc:c8:2b:29:1e:a7:bd:4f:3b:0b:ab:
         d1:f6:80:8c:4e:59:91:23:bf:f5:63:0e:9c:dc:75:8f:b1:cf:
         a4:b9:9d:d4:a0:4a:a7:b7:cf:ee:75:00:05:80:90:11:a7:54:
         01:59:4b:c5:50:6b:cc:df:16:48:c7:27:9f:36:6f:ff:43:d5:
         3c:9c:40:c5:6a:94:72:80:1a:e7:ba:51:1c:b1:88:31:88:04:
         44:ef:0b:2f:7c:6e:a5:b4:d4:e9:31:a0:48:b8:93:c6:4a:9f:
         3c:9b:54:5b:87:1c:1e:9f:ab:08:20:9e:f5:f4:69:79:c7:20:
         ee:f2:b8:95:66:51:4c:a3:73:0a:bd:69:8f:0a:f8:6f:9c:c4:
         2b:bd:67:a1:18:8f:ed:be:fd:0b:8a:5c:5d:8c:aa:a6:11:f0:
         14:81:48:27:13:67:f9:ed:37:be:23:81:14:bc:fd:fc:b5:e9:
         38:91:a1:2a:c0:75:e7:40:a0:b7:4a:ec:2f:0f:9a:0d:2f:42:
         66:b3:de:f1
Certificate:
    Data:
        Version: 3 (0x2)
        Serial Number:
            eb:a8:64:9d:3a:b3:bd:46
    Signature Algorithm: sha256WithRSAEncryption
        Issuer: C=US, ST=California, L=San Francisco, O=Lyft, OU=Lyft Engineering, CN=ca
        Validity
            Not Before: Aug 28 17:05:24 2024 GMT
            Not After : Aug 28 17:05:24 2026 GMT
        Subject: C=US, ST=California, L=San Francisco, O=Lyft, OU=Lyft Engineering, CN=ca
        Subject Public Key Info:
            Public Key Algorithm: rsaEncryption
                Public-Key: (2048 bit)
                Modulus:
                    00:c0:ba:5b:d2:3f:67:69:7a:cf:53:72:f3:d1:6d:
                    b6:f2:77:ed:54:9d:18:a1:83:e0:fc:5f:ee:5f:39:
                    2b:57:7d:5f:57:e7:b2:4a:f4:ed:e4:93:27:8e:33:
                    8c:de:8e:0c:e7:d4:f7:d6:ca:32:d5:f9:8e:24:e3:
                    f3:51:4d:dd:da:79:0c:3b:d3:c3:2f:88:dc:83:8a:
                    6e:ea:0a:7a:3e:d5:24:38:8f:f9:92:fd:95:82:3a:
                    94:ca:5a:70:52:38:52:04:98:09:53:47:c9:0a:d1:
                    1f:e1:e3:81:60:3b:4f:a4:8a:83:de:e3:c0:05:48:
                    d6:9d:f6:4c:df:be:33:06:23:17:4b:1e:82:0d:8e:
                    af:5c:23:f8:ba:aa:0f:23:32:e2:16:5d:03:0b:e8:
                    7a:8c:b3:d8:ec:6d:18:70:fe:64:4a:66:34:16:1c:
                    47:7c:e1:6b:ee:7f:15:cd:0c:f2:50:a2:fe:c9:c6:
                    8e:74:eb:53:05:d5:38:35:9b:5f:2e:f9:1e:bc:e5:
                    0b:62:41:51:00:19:41:38:97:2c:a0:9d:57:cd:f8:
                    0b:af:97:74:20:24:78:f4:39:24:89:fd:ff:9e:c1:
                    9a:d8:82:8a:21:a0:ed:15:c1:4c:97:d5:92:0e:f8:
                    07:c8:43:ca:04:1b:f0:e2:1d:8f:5d:c5:8d:cb:b5:
                    6c:87
                Exponent: 65537 (0x10001)
        X509v3 extensions:
            X509v3 Subject Key Identifier: 
                2D:AC:FB:CD:96:72:C3:63:E4:65:04:8C:64:50:37:CA:06:53:5F:FE
            X509v3 Authority Key Identifier: 
                keyid:2D:AC:FB:CD:96:72:C3:63:E4:65:04:8C:64:50:37:CA:06:53:5F:FE

            X509v3 Basic Constraints: critical
                CA:TRUE
            X509v3 Key Usage: critical
                Digital Signature, Certificate Sign, CRL Sign
    Signature Algorithm: sha256WithRSAEncryption
         81:13:27:f3:44:a4:18:d0:8e:34:f0:7f:b4:d9:09:8f:7f:b6:
         8b:ee:3a:4c:3a:c4:59:74:26:40:db:2c:09:16:27:ba:95:c7:
         49:bd:62:5a:56:40:e8:a4:d5:1e:fd:34:7a:1c:9d:e9:84:90:
         76:dc:37:90:48:1b:80:0f:67:7a:bc:a6:41:7a:d8:9a:d9:44:
         ec:9e:1a:58:5e:0a:87:c8:e1:36:d4:11:76:e7:e3:8f:9a:a8:
         42:b7:15:cf:9f:8b:9f:98:92:3c:15:d8:88:34:d2:a2:a1:88:
         f5:12:19:0d:98:de:ae:e2:5d:50:7f:ad:86:98:17:e1:22:91:
         39:25:97:87:e3:2e:34:70:43:4a:63:ec:8c:df:b8:73:66:d6:
         6c:2f:db:14:4b:25:6c:d1:59:ae:b7:00:2f:f4:bd:5b:01:d5:
         20:2a:42:b5:69:3f:3c:02:64:67:19:8c:84:aa:db:3c:6e:8b:
         ea:b0:15:42:9b:1a:47:3a:e3:08:55:54:72:e6:1b:e2:25:94:
         46:6d:66:c4:dd:dc:0e:ed:82:8b:f7:d9:dd:86:23:cb:04:d3:
         c6:6c:41:38:c3:04:9d:4e:cb:f5:72:a6:f7:a0:28:ca:a2:8f:
         5e:b8:a6:a9:e3:cc:83:ec:64:57:3e:a5:82:65:91:03:49:a6:
         8c:dd:eb:2d
-----BEGIN CERTIFICATE-----
MIIDyDCCArCgAwIBAgIJAOuoZJ06s71GMA0GCSqGSIb3DQEBCwUAMHExCzAJBgNV
BAYTAlVTMRMwEQYDVQQIDApDYWxpZm9ybmlhMRYwFAYDVQQHDA1TYW4gRnJhbmNp
c2NvMQ0wCwYDVQQKDARMeWZ0MRkwFwYDVQQLDBBMeWZ0IEVuZ2luZWVyaW5nMQsw
CQYDVQQDDAJjYTAeFw0yNDA4MjgxNzA1MjRaFw0yNjA4MjgxNzA1MjRaMHExCzAJ
BgNVBAYTAlVTMRMwEQYDVQQIDApDYWxpZm9ybmlhMRYwFAYDVQQHDA1TYW4gRnJh
bmNpc2NvMQ0wCwYDVQQKDARMeWZ0MRkwFwYDVQQLDBBMeWZ0IEVuZ2luZWVyaW5n
MQswCQYDVQQDDAJjYTCCASIwDQYJKoZIhvcNAQEBBQADggEPADCCAQoCggEBAMC6
W9I/Z2l6z1Ny89FttvJ37VSdGKGD4Pxf7l85K1d9X1fnskr07eSTJ44zjN6ODOfU
99bKMtX5jiTj81FN3dp5DDvTwy+I3IOKbuoKej7VJDiP+ZL9lYI6lMpacFI4UgSY
CVNHyQrRH+HjgWA7T6SKg97jwAVI1p32TN++MwYjF0segg2Or1wj+LqqDyMy4hZd
Awvoeoyz2OxtGHD+ZEpmNBYcR3zha+5/Fc0M8lCi/snGjnTrUwXVODWbXy75Hrzl
C2JBUQAZQTiXLKCdV834C6+XdCAkePQ5JIn9/57BmtiCiiGg7RXBTJfVkg74B8hD
ygQb8OIdj13Fjcu1bIcCAwEAAaNjMGEwHQYDVR0OBBYEFC2s+82WcsNj5GUEjGRQ
N8oGU1/+MB8GA1UdIwQYMBaAFC2s+82WcsNj5GUEjGRQN8oGU1/+MA8GA1UdEwEB
/wQFMAMBAf8wDgYDVR0PAQH/BAQDAgGGMA0GCSqGSIb3DQEBCwUAA4IBAQCBEyfz
RKQY0I408H+02QmPf7aL7jpMOsRZdCZA2ywJFie6lcdJvWJaVkDopNUe/TR6HJ3p
hJB23DeQSBuAD2d6vKZBetia2UTsnhpYXgqHyOE21BF25+OPmqhCtxXPn4ufmJI8
FdiINNKioYj1EhkNmN6u4l1Qf62GmBfhIpE5JZeH4y40cENKY+yM37hzZtZsL9sU
SyVs0VmutwAv9L1bAdUgKkK1aT88AmRnGYyEqts8bovqsBVCmxpHOuMIVVRy5hvi
JZRGbWbE3dwO7YKL99ndhiPLBNPGbEE4wwSdTsv1cqb3oCjKoo9euKap48yD7GRX
PqWCZZEDSaaM3est
-----END CERTIFICATE-----
