OCSP Response Data:
    OCSP Response Status: successful (0x0)
    Response Type: Basic OCSP Response
    Version: 1 (0x0)
    Responder Id: C = US, ST = California, L = San Francisco, O = Lyft, OU = Lyft Engineering, CN = ca
    Produced At: Oct 22 02:57:52 2020 GMT
    Responses:
    Certificate ID:
      Hash Algorithm: sha1
      Issuer Name Hash: 16C50680A809B68F302789AB234F8F4B30B0E06C
      Issuer Key Hash: 187843E49EA451E66B463A475A2D7A596E788416
      Serial Number: 1000
    Cert Status: good
    This Update: Oct 22 02:57:52 2020 GMT
    Next Update: Oct 22 02:57:52 2022 GMT

    Response Extensions:
        OCSP Nonce: 
            04109C5C7305A9C99B599CAD3612F1A32885
    Signature Algorithm: sha256WithRSAEncryption
         b6:2f:7e:dd:b5:eb:5b:e6:e6:1f:d4:fb:7f:59:35:de:b2:31:
         2a:52:4a:7d:81:8a:ec:7d:dc:cc:7a:92:61:7d:f1:02:25:c9:
         2c:ed:ea:ec:14:c1:a8:8f:78:44:01:4a:e6:07:ff:fc:61:0e:
         3b:ba:66:d6:c5:6b:6d:77:7c:ef:ea:a6:b6:75:87:14:34:b1:
         75:02:ef:7d:6e:a3:5d:5b:29:e2:60:4e:39:ae:ce:1a:5f:ef:
         35:9f:ce:d5:e1:0f:f9:f4:51:2d:07:f8:38:4c:5c:96:ba:60:
         66:07:e0:7a:ea:ac:ba:70:ea:1a:8f:bf:b9:26:94:a9:83:13:
         17:70:61:f7:38:4e:06:73:1a:3d:b3:02:4b:19:82:a3:4a:e1:
         7c:07:d8:fd:b7:91:56:16:25:86:e9:a8:ff:a5:c2:cb:6e:c8:
         ee:b1:da:77:2d:6a:e9:7e:a5:48:54:f4:1f:82:0e:b3:72:0c:
         53:03:95:a3:b0:3c:4e:55:74:ee:96:d6:f7:b2:03:1b:7f:24:
         61:e1:dc:ed:d6:a3:0d:13:02:82:0d:ed:bd:ed:ba:ab:2e:8c:
         d0:19:f6:c9:8e:59:ad:68:ea:34:6f:33:5d:96:73:b3:3e:df:
         a0:10:d6:ac:18:f6:ab:12:fe:9d:35:41:0d:34:4f:da:70:c3:
         4e:7d:52:46
Certificate:
    Data:
        Version: 3 (0x2)
        Serial Number:
            2a:db:1e:73:b4:0f:af:11:bb:24:44:d0:48:f1:fb:5d:59:c7:f5:17
        Signature Algorithm: sha256WithRSAEncryption
        Issuer: C=US, ST=California, L=San Francisco, O=Lyft, OU=Lyft Engineering, CN=ca
        Validity
            Not Before: Oct 22 02:57:51 2020 GMT
            Not After : Oct 22 02:57:51 2022 GMT
        Subject: C=US, ST=California, L=San Francisco, O=Lyft, OU=Lyft Engineering, CN=ca
        Subject Public Key Info:
            Public Key Algorithm: rsaEncryption
                RSA Public-Key: (2048 bit)
                Modulus:
                    00:db:e8:73:4e:bd:7a:d1:ce:e6:80:d2:82:52:83:
                    b1:43:29:6c:90:8c:f6:74:03:79:85:68:c1:4f:7f:
                    0c:f0:21:85:e4:57:05:64:11:bd:40:a4:9d:b7:b4:
                    20:9c:80:57:b7:aa:0e:02:e3:ae:7c:a3:4b:35:65:
                    0a:af:35:44:e0:69:43:87:12:4a:28:20:25:ce:27:
                    45:69:e2:24:93:50:de:9f:2f:64:88:00:c3:76:c5:
                    6b:38:c1:ef:e8:95:c8:30:f7:20:a2:da:0e:56:ee:
                    a2:c0:69:58:b2:f1:eb:fc:eb:a4:6d:1e:0f:01:b8:
                    dd:cd:de:75:76:b0:bf:68:a2:30:47:1e:2f:73:d4:
                    24:f9:62:ad:55:78:c9:29:07:2c:cb:17:84:29:fa:
                    ce:26:5a:19:3a:4a:2b:31:fd:87:59:60:0e:04:d8:
                    3b:78:12:ec:1d:e4:22:3a:b2:cf:9f:02:5f:d1:e1:
                    5f:1f:33:82:c7:60:4c:f2:12:7e:7f:21:e4:f8:d9:
                    9e:9e:31:25:f3:c5:c6:69:39:1d:a6:29:66:65:71:
                    6a:78:30:42:72:bb:0b:c1:b5:4f:a3:33:b9:b2:2c:
                    64:cf:8a:bb:53:0f:44:80:12:a9:8e:d0:b2:d6:e4:
                    7e:98:3d:35:bc:7d:7b:5f:69:1f:96:68:15:46:48:
                    ea:95
                Exponent: 65537 (0x10001)
        X509v3 extensions:
            X509v3 Subject Key Identifier: 
                18:78:43:E4:9E:A4:51:E6:6B:46:3A:47:5A:2D:7A:59:6E:78:84:16
            X509v3 Authority Key Identifier: 
                keyid:18:78:43:E4:9E:A4:51:E6:6B:46:3A:47:5A:2D:7A:59:6E:78:84:16

            X509v3 Basic Constraints: critical
                CA:TRUE
            X509v3 Key Usage: critical
                Digital Signature, Certificate Sign, CRL Sign
    Signature Algorithm: sha256WithRSAEncryption
         b2:79:47:56:c3:e7:13:de:5f:8b:ed:a3:c3:80:11:e1:96:36:
         1f:ce:26:46:84:a7:c2:4e:96:59:c1:97:0b:38:bd:85:51:b2:
         8e:37:ea:45:d1:d9:25:0d:5d:5d:b7:08:2f:bc:7f:4d:d6:88:
         29:2f:6b:ba:cb:4c:12:1a:f4:dc:20:fc:5d:75:f2:8e:4b:db:
         bf:70:fb:28:7e:81:16:74:67:5b:38:a1:bf:9f:6f:38:88:d2:
         c0:3f:35:43:a6:b5:d4:76:48:4e:58:35:e1:dd:02:d1:fa:03:
         56:1a:8e:08:b1:4c:da:36:d2:2a:59:bf:90:8d:07:33:76:6f:
         10:46:87:d6:ff:e1:6d:cb:2d:9d:21:8e:0c:0e:3d:44:95:b5:
         c9:85:7a:4e:76:e6:de:e7:91:96:8a:07:ce:8f:f6:0d:15:bc:
         cf:e0:44:97:c6:eb:2f:38:c1:06:71:b9:e4:9c:bf:a7:a5:35:
         4c:7e:3b:d0:c6:13:90:f5:92:ee:44:91:f7:9e:1f:88:8b:d1:
         e4:dd:f9:50:df:13:5a:46:64:2f:0e:07:be:75:d7:45:9b:3d:
         65:38:57:79:5a:f7:00:be:b5:04:e4:37:d5:c5:1c:32:53:cf:
         1f:47:72:70:36:2a:31:99:eb:ef:19:82:3c:23:58:2a:54:63:
         e8:2b:0c:f7
-----BEGIN CERTIFICATE-----
MIID0zCCArugAwIBAgIUKtsec7QPrxG7JETQSPH7XVnH9RcwDQYJKoZIhvcNAQEL
BQAwcTELMAkGA1UEBhMCVVMxEzARBgNVBAgMCkNhbGlmb3JuaWExFjAUBgNVBAcM
DVNhbiBGcmFuY2lzY28xDTALBgNVBAoMBEx5ZnQxGTAXBgNVBAsMEEx5ZnQgRW5n
aW5lZXJpbmcxCzAJBgNVBAMMAmNhMB4XDTIwMTAyMjAyNTc1MVoXDTIyMTAyMjAy
NTc1MVowcTELMAkGA1UEBhMCVVMxEzARBgNVBAgMCkNhbGlmb3JuaWExFjAUBgNV
BAcMDVNhbiBGcmFuY2lzY28xDTALBgNVBAoMBEx5ZnQxGTAXBgNVBAsMEEx5ZnQg
RW5naW5lZXJpbmcxCzAJBgNVBAMMAmNhMIIBIjANBgkqhkiG9w0BAQEFAAOCAQ8A
MIIBCgKCAQEA2+hzTr160c7mgNKCUoOxQylskIz2dAN5hWjBT38M8CGF5FcFZBG9
QKSdt7QgnIBXt6oOAuOufKNLNWUKrzVE4GlDhxJKKCAlzidFaeIkk1Deny9kiADD
dsVrOMHv6JXIMPcgotoOVu6iwGlYsvHr/OukbR4PAbjdzd51drC/aKIwRx4vc9Qk
+WKtVXjJKQcsyxeEKfrOJloZOkorMf2HWWAOBNg7eBLsHeQiOrLPnwJf0eFfHzOC
x2BM8hJ+fyHk+NmenjEl88XGaTkdpilmZXFqeDBCcrsLwbVPozO5sixkz4q7Uw9E
gBKpjtCy1uR+mD01vH17X2kflmgVRkjqlQIDAQABo2MwYTAdBgNVHQ4EFgQUGHhD
5J6kUeZrRjpHWi16WW54hBYwHwYDVR0jBBgwFoAUGHhD5J6kUeZrRjpHWi16WW54
hBYwDwYDVR0TAQH/BAUwAwEB/zAOBgNVHQ8BAf8EBAMCAYYwDQYJKoZIhvcNAQEL
BQADggEBALJ5R1bD5xPeX4vto8OAEeGWNh/OJkaEp8JOllnBlws4vYVRso436kXR
2SUNXV23CC+8f03WiCkva7rLTBIa9Nwg/F118o5L279w+yh+gRZ0Z1s4ob+fbziI
0sA/NUOmtdR2SE5YNeHdAtH6A1YajgixTNo20ipZv5CNBzN2bxBGh9b/4W3LLZ0h
jgwOPUSVtcmFek525t7nkZaKB86P9g0VvM/gRJfG6y84wQZxueScv6elNUx+O9DG
E5D1ku5EkfeeH4iL0eTd+VDfE1pGZC8OB75110WbPWU4V3la9wC+tQTkN9XFHDJT
zx9HcnA2KjGZ6+8ZgjwjWCpUY+grDPc=
-----END CERTIFICATE-----
